target datalayout = "e-m:e-p270:32:32-p271:32:32-p272:64:64-i64:64-i128:128-f80:128-n8:16:32:64-S128"
target triple = "x86_64-pc-linux-gnu"

%"class.pxrInternal_v0_24__pxrReserved__::SdfHandle" = type { %"class.pxrInternal_v0_24__pxrReserved__::SdfAttributeSpec" }
%"class.pxrInternal_v0_24__pxrReserved__::SdfAttributeSpec" = type { %"class.pxrInternal_v0_24__pxrReserved__::SdfPropertySpec" }
%"class.pxrInternal_v0_24__pxrReserved__::SdfPropertySpec" = type { %"class.pxrInternal_v0_24__pxrReserved__::SdfSpec" }
%"class.pxrInternal_v0_24__pxrReserved__::SdfSpec" = type { %"class.pxrInternal_v0_24__pxrReserved__::TfDelegatedCountPtr.187" }
%"class.pxrInternal_v0_24__pxrReserved__::TfDelegatedCountPtr.187" = type { ptr }

; Function Attrs: mustprogress nounwind uwtable
define linkonce_odr void @_ZN32pxrInternal_v0_24__pxrReserved__15SdfPropertySpecD2Ev(ptr noundef nonnull align 8 dereferenceable(8) %0) unnamed_addr #3 comdat align 2 {
  %2 = alloca ptr, align 8
  store ptr %0, ptr %2, align 8
  %3 = load ptr, ptr %2, align 8
  call void @_ZN32pxrInternal_v0_24__pxrReserved__7SdfSpecD2Ev(ptr noundef nonnull align 8 dereferenceable(8) %3) #11
  ret void
}

; Function Attrs: mustprogress nounwind uwtable
define linkonce_odr void @_ZN32pxrInternal_v0_24__pxrReserved__16SdfAttributeSpecD2Ev(ptr noundef nonnull align 8 dereferenceable(8) %0) unnamed_addr #3 comdat align 2 {
  %2 = alloca ptr, align 8
  store ptr %0, ptr %2, align 8
  %3 = load ptr, ptr %2, align 8
  call void @_ZN32pxrInternal_v0_24__pxrReserved__15SdfPropertySpecD2Ev(ptr noundef nonnull align 8 dereferenceable(8) %3) #11
  ret void
}

; Function Attrs: mustprogress nounwind uwtable
define linkonce_odr void @_ZN32pxrInternal_v0_24__pxrReserved__9SdfHandleINS_16SdfAttributeSpecEED2Ev(ptr noundef nonnull align 8 dereferenceable(8) %0) unnamed_addr #3 comdat align 2 {
  %2 = alloca ptr, align 8
  store ptr %0, ptr %2, align 8
  %3 = load ptr, ptr %2, align 8
  %4 = getelementptr inbounds nuw %"class.pxrInternal_v0_24__pxrReserved__::SdfHandle", ptr %3, i32 0, i32 0
  call void @_ZN32pxrInternal_v0_24__pxrReserved__16SdfAttributeSpecD2Ev(ptr noundef nonnull align 8 dereferenceable(8) %4) #11
  ret void
}

; Function Attrs: mustprogress uwtable
define linkonce_odr i64 @_ZNK32pxrInternal_v0_24__pxrReserved__9SdfHandleINS_16SdfAttributeSpecEEcvMS2_S1_Ev(ptr noundef nonnull align 8 dereferenceable(8) %0) #0 comdat align 2 {
  %2 = alloca ptr, align 8
  store ptr %0, ptr %2, align 8
  %3 = load ptr, ptr %2, align 8
  %4 = getelementptr inbounds nuw %"class.pxrInternal_v0_24__pxrReserved__::SdfHandle", ptr %3, i32 0, i32 0
  %5 = call noundef zeroext i1 @_ZNK32pxrInternal_v0_24__pxrReserved__7SdfSpec9IsDormantEv(ptr noundef nonnull align 8 dereferenceable(8) %4)
  %6 = select i1 %5, i64 -1, i64 0
  ret i64 %6
}

; Function Attrs: mustprogress uwtable
define noundef zeroext i1 @_ZNK32pxrInternal_v0_24__pxrReserved__12UsdAttribute7_CreateERKNS_16SdfValueTypeNameEbRKNS_14SdfVariabilityE(ptr noundef nonnull align 8 dereferenceable(32) %0, ptr noundef nonnull align 8 dereferenceable(8) %1, i1 noundef zeroext %2, ptr noundef nonnull align 4 dereferenceable(4) %3) #0 align 2 personality ptr @__gxx_personality_v0 {
  %5 = alloca ptr, align 8
  %6 = alloca ptr, align 8
  %7 = alloca i8, align 1
  %8 = alloca ptr, align 8
  %9 = alloca %"class.pxrInternal_v0_24__pxrReserved__::SdfHandle", align 8
  %10 = alloca ptr, align 8
  %11 = alloca i32, align 4
  store ptr %0, ptr %5, align 8
  store ptr %1, ptr %6, align 8
  %12 = zext i1 %2 to i8
  store i8 %12, ptr %7, align 1
  store ptr %3, ptr %8, align 8
  %13 = load ptr, ptr %5, align 8
  %14 = load ptr, ptr %6, align 8
  %15 = load i8, ptr %7, align 1
  %16 = trunc i8 %15 to i1
  %17 = load ptr, ptr %8, align 8
  call void @_ZNK32pxrInternal_v0_24__pxrReserved__12UsdAttribute11_CreateSpecERKNS_16SdfValueTypeNameEbRKNS_14SdfVariabilityE(ptr dead_on_unwind writable sret(%"class.pxrInternal_v0_24__pxrReserved__::SdfHandle") align 8 %9, ptr noundef nonnull align 8 dereferenceable(32) %13, ptr noundef nonnull align 8 dereferenceable(8) %14, i1 noundef zeroext %16, ptr noundef nonnull align 4 dereferenceable(4) %17)
  %18 = invoke i64 @_ZNK32pxrInternal_v0_24__pxrReserved__9SdfHandleINS_16SdfAttributeSpecEEcvMS2_S1_Ev(ptr noundef nonnull align 8 dereferenceable(8) %9)
          to label %19 unwind label %21

19:                                               ; preds = %4
  %20 = icmp ne i64 %18, -1
  call void @_ZN32pxrInternal_v0_24__pxrReserved__9SdfHandleINS_16SdfAttributeSpecEED2Ev(ptr noundef nonnull align 8 dereferenceable(8) %9) #11
  ret i1 %20

21:                                               ; preds = %4
  %22 = landingpad { ptr, i32 }
          cleanup
  %23 = extractvalue { ptr, i32 } %22, 0
  store ptr %23, ptr %10, align 8
  %24 = extractvalue { ptr, i32 } %22, 1
  store i32 %24, ptr %11, align 4
  call void @_ZN32pxrInternal_v0_24__pxrReserved__9SdfHandleINS_16SdfAttributeSpecEED2Ev(ptr noundef nonnull align 8 dereferenceable(8) %9) #11
  br label %25

25:                                               ; preds = %21
  %26 = load ptr, ptr %10, align 8
  %27 = load i32, ptr %11, align 4
  %28 = insertvalue { ptr, i32 } poison, ptr %26, 0
  %29 = insertvalue { ptr, i32 } %28, i32 %27, 1
  resume { ptr, i32 } %29
}