; Function Attrs: mustprogress uwtable
define noundef zeroext i1 @_ZNK32pxrInternal_v0_24__pxrReserved__12UsdAttribute7_CreateERKNS_16SdfValueTypeNameEbRKNS_14SdfVariabilityE(ptr noundef nonnull align 8 dereferenceable(32) %0, ptr noundef nonnull align 8 dereferenceable(8) %1, i1 noundef zeroext %2, ptr nocapture noundef nonnull readonly align 4 dereferenceable(4) %3) local_unnamed_addr #0 align 2 personality ptr @__gxx_personality_v0 {
  %5 = alloca %"class.pxrInternal_v0_24__pxrReserved__::SdfHandle", align 8
  call void @_ZNK32pxrInternal_v0_24__pxrReserved__12UsdAttribute11_CreateSpecERKNS_16SdfValueTypeNameEbRKNS_14SdfVariabilityE(ptr dead_on_unwind nonnull writable sret(%"class.pxrInternal_v0_24__pxrReserved__::SdfHandle") align 8 %5, ptr noundef nonnull align 8 dereferenceable(32) %0, ptr noundef nonnull align 8 dereferenceable(8) %1, i1 noundef zeroext %2, ptr noundef nonnull align 4 dereferenceable(4) %3)
  %6 = invoke noundef zeroext i1 @_ZNK32pxrInternal_v0_24__pxrReserved__7SdfSpec9IsDormantEv(ptr noundef nonnull align 8 dereferenceable(8) %5)
          to label %7 unwind label %9

7:                                                ; preds = %4
  %8 = xor i1 %6, true
  call void @_ZN32pxrInternal_v0_24__pxrReserved__7SdfSpecD2Ev(ptr noundef nonnull align 8 dereferenceable(8) %5) #16
  ret i1 %8

9:                                                ; preds = %4
  %10 = landingpad { ptr, i32 }
          cleanup
  call void @_ZN32pxrInternal_v0_24__pxrReserved__7SdfSpecD2Ev(ptr noundef nonnull align 8 dereferenceable(8) %5) #16
  resume { ptr, i32 } %10
}